; Function Attrs: mustprogress uwtable
define hidden void @_ZN19OpenColorIO_v2_5dev14CTFReaderOpElt14appendMetadataERKNSt7__cxx1112basic_stringIcSt11char_traitsIcESaIcEEES8_(ptr noundef nonnull align 8 dereferenceable(104) %0, ptr noundef nonnull align 8 dereferenceable(32) %1, ptr noundef nonnull align 8 dereferenceable(32) %2) unnamed_addr #4 align 2 personality ptr @__gxx_personality_v0 {
  %4 = alloca %"class.OpenColorIO_v2_5dev::FormatMetadataImpl", align 8
  %5 = alloca %"class.std::shared_ptr.27", align 8
  call void @llvm.lifetime.start.p0(i64 120, ptr nonnull %4) #33
  call void @_ZN19OpenColorIO_v2_5dev18FormatMetadataImplC1ERKNSt7__cxx1112basic_stringIcSt11char_traitsIcESaIcEEES8_(ptr noundef nonnull align 8 dereferenceable(120) %4, ptr noundef nonnull align 8 dereferenceable(32) %1, ptr noundef nonnull align 8 dereferenceable(32) %2)
  call void @llvm.lifetime.start.p0(i64 16, ptr nonnull %5) #33
  %6 = load ptr, ptr %0, align 8, !tbaa !9
  %7 = getelementptr inbounds nuw i8, ptr %6, i64 72
  %8 = load ptr, ptr %7, align 8
  invoke void %8(ptr dead_on_unwind nonnull writable sret(%"class.std::shared_ptr.27") align 8 %5, ptr noundef nonnull align 8 dereferenceable(104) %0)
          to label %9 unwind label %44

9:                                                ; preds = %3
  %10 = load ptr, ptr %5, align 8, !tbaa !141
  %11 = getelementptr inbounds nuw i8, ptr %10, i64 48
  %12 = call noundef nonnull align 8 dereferenceable(24) ptr @_ZN19OpenColorIO_v2_5dev18FormatMetadataImpl19getChildrenElementsEv(ptr noundef nonnull align 8 dereferenceable(120) %11) #33
  %13 = getelementptr inbounds nuw i8, ptr %12, i64 8
  %14 = load ptr, ptr %13, align 8, !tbaa !225
  %15 = getelementptr inbounds nuw i8, ptr %12, i64 16
  %16 = load ptr, ptr %15, align 8, !tbaa !228
  %.not.i = icmp eq ptr %14, %16
  br i1 %.not.i, label %20, label %17

17:                                               ; preds = %9
  invoke void @_ZN19OpenColorIO_v2_5dev18FormatMetadataImplC1ERKS0_(ptr noundef nonnull align 8 dereferenceable(120) %14, ptr noundef nonnull align 8 dereferenceable(120) %4)
          to label %.noexc unwind label %46

.noexc:                                           ; preds = %17
  %18 = load ptr, ptr %13, align 8, !tbaa !225
  %19 = getelementptr inbounds nuw i8, ptr %18, i64 120
  store ptr %19, ptr %13, align 8, !tbaa !225
  br label %_ZNSt6vectorIN19OpenColorIO_v2_5dev18FormatMetadataImplESaIS1_EE9push_backERKS1_.exit

20:                                               ; preds = %9
  invoke void @_ZNSt6vectorIN19OpenColorIO_v2_5dev18FormatMetadataImplESaIS1_EE17_M_realloc_insertIJRKS1_EEEvN9__gnu_cxx17__normal_iteratorIPS1_S3_EEDpOT_(ptr noundef nonnull align 8 dereferenceable(24) %12, ptr %14, ptr noundef nonnull align 8 dereferenceable(120) %4)
          to label %_ZNSt6vectorIN19OpenColorIO_v2_5dev18FormatMetadataImplESaIS1_EE9push_backERKS1_.exit unwind label %46

_ZNSt6vectorIN19OpenColorIO_v2_5dev18FormatMetadataImplESaIS1_EE9push_backERKS1_.exit: ; preds = %.noexc, %20
  %21 = getelementptr inbounds nuw i8, ptr %5, i64 8
  %22 = load ptr, ptr %21, align 8, !tbaa !33
  %.not.i.i = icmp eq ptr %22, null
  br i1 %.not.i.i, label %_ZNSt12__shared_ptrIN19OpenColorIO_v2_5dev6OpDataELN9__gnu_cxx12_Lock_policyE2EED2Ev.exit, label %23

23:                                               ; preds = %_ZNSt6vectorIN19OpenColorIO_v2_5dev18FormatMetadataImplESaIS1_EE9push_backERKS1_.exit
  %24 = getelementptr inbounds nuw i8, ptr %22, i64 8
  %25 = load atomic i64, ptr %24 acquire, align 8
  %26 = icmp eq i64 %25, 4294967297
  %27 = trunc i64 %25 to i32
  br i1 %26, label %28, label %36

28:                                               ; preds = %23
  store i32 0, ptr %24, align 8, !tbaa !26
  %29 = getelementptr inbounds nuw i8, ptr %22, i64 12
  store i32 0, ptr %29, align 4, !tbaa !31
  %30 = load ptr, ptr %22, align 8, !tbaa !9
  %31 = getelementptr inbounds nuw i8, ptr %30, i64 16
  %32 = load ptr, ptr %31, align 8
  call void %32(ptr noundef nonnull align 8 dereferenceable(16) %22) #33
  %33 = load ptr, ptr %22, align 8, !tbaa !9
  %34 = getelementptr inbounds nuw i8, ptr %33, i64 24
  %35 = load ptr, ptr %34, align 8
  call void %35(ptr noundef nonnull align 8 dereferenceable(16) %22) #33
  br label %_ZNSt12__shared_ptrIN19OpenColorIO_v2_5dev6OpDataELN9__gnu_cxx12_Lock_policyE2EED2Ev.exit

36:                                               ; preds = %23
  %37 = load i8, ptr @__libc_single_threaded, align 1, !tbaa !34
  %.not.i.i.i = icmp eq i8 %37, 0
  br i1 %.not.i.i.i, label %40, label %38

38:                                               ; preds = %36
  %39 = add nsw i32 %27, -1
  store i32 %39, ptr %24, align 4, !tbaa !35
  br label %_ZN9__gnu_cxx27__exchange_and_add_dispatchEPii.exit.i.i.i

40:                                               ; preds = %36
  %41 = atomicrmw volatile add ptr %24, i32 -1 acq_rel, align 4
  br label %_ZN9__gnu_cxx27__exchange_and_add_dispatchEPii.exit.i.i.i

_ZN9__gnu_cxx27__exchange_and_add_dispatchEPii.exit.i.i.i: ; preds = %40, %38
  %.0.i.i.i.i = phi i32 [ %27, %38 ], [ %41, %40 ]
  %42 = icmp eq i32 %.0.i.i.i.i, 1
  br i1 %42, label %43, label %_ZNSt12__shared_ptrIN19OpenColorIO_v2_5dev6OpDataELN9__gnu_cxx12_Lock_policyE2EED2Ev.exit, !prof !36

43:                                               ; preds = %_ZN9__gnu_cxx27__exchange_and_add_dispatchEPii.exit.i.i.i
  call void @_ZNSt16_Sp_counted_baseILN9__gnu_cxx12_Lock_policyE2EE24_M_release_last_use_coldEv(ptr noundef nonnull align 8 dereferenceable(16) %22) #33
  br label %_ZNSt12__shared_ptrIN19OpenColorIO_v2_5dev6OpDataELN9__gnu_cxx12_Lock_policyE2EED2Ev.exit

_ZNSt12__shared_ptrIN19OpenColorIO_v2_5dev6OpDataELN9__gnu_cxx12_Lock_policyE2EED2Ev.exit: ; preds = %_ZNSt6vectorIN19OpenColorIO_v2_5dev18FormatMetadataImplESaIS1_EE9push_backERKS1_.exit, %28, %_ZN9__gnu_cxx27__exchange_and_add_dispatchEPii.exit.i.i.i, %43
  call void @llvm.lifetime.end.p0(i64 16, ptr nonnull %5) #33
  call void @_ZN19OpenColorIO_v2_5dev18FormatMetadataImplD1Ev(ptr noundef nonnull align 8 dereferenceable(120) %4) #33
  call void @llvm.lifetime.end.p0(i64 120, ptr nonnull %4) #33
  ret void

44:                                               ; preds = %3
  %45 = landingpad { ptr, i32 }
          cleanup
  br label %48

46:                                               ; preds = %20, %17
  %47 = landingpad { ptr, i32 }
          cleanup
  call void @_ZNSt12__shared_ptrIN19OpenColorIO_v2_5dev6OpDataELN9__gnu_cxx12_Lock_policyE2EED2Ev(ptr noundef nonnull align 8 dereferenceable(16) %5) #33
  br label %48

48:                                               ; preds = %46, %44
  %.pn = phi { ptr, i32 } [ %47, %46 ], [ %45, %44 ]
  call void @llvm.lifetime.end.p0(i64 16, ptr nonnull %5) #33
  call void @_ZN19OpenColorIO_v2_5dev18FormatMetadataImplD1Ev(ptr noundef nonnull align 8 dereferenceable(120) %4) #33
  call void @llvm.lifetime.end.p0(i64 120, ptr nonnull %4) #33
  resume { ptr, i32 } %.pn
}